target datalayout = "e-m:e-p270:32:32-p271:32:32-p272:64:64-i64:64-i128:128-f80:128-n8:16:32:64-S128"
target triple = "x86_64-pc-linux-gnu"

%"struct.pxrInternal_v0_24__pxrReserved__::TfStreamFloat" = type { float }
%"class.pxrInternal_v0_24__pxrReserved__::GfVec4f" = type { [4 x float] }

@.str.2 = private unnamed_addr constant [3 x i8] c", \00", align 1

; Function Attrs: mustprogress nounwind uwtable
define linkonce_odr void @_ZN32pxrInternal_v0_24__pxrReserved__13TfStreamFloatC2Ef(ptr noundef nonnull align 4 dereferenceable(4) %0, float noundef %1) unnamed_addr #2 comdat align 2 {
  %3 = alloca ptr, align 8
  %4 = alloca float, align 4
  store ptr %0, ptr %3, align 8
  store float %1, ptr %4, align 4
  %5 = load ptr, ptr %3, align 8
  %6 = getelementptr inbounds nuw %"struct.pxrInternal_v0_24__pxrReserved__::TfStreamFloat", ptr %5, i32 0, i32 0
  %7 = load float, ptr %4, align 4
  store float %7, ptr %6, align 4
  ret void
}

; Function Attrs: mustprogress uwtable
define linkonce_odr float @_ZN32pxrInternal_v0_24__pxrReserved__17Gf_OstreamHelperPEf(float noundef %0) #0 comdat {
  %2 = alloca %"struct.pxrInternal_v0_24__pxrReserved__::TfStreamFloat", align 4
  %3 = alloca float, align 4
  store float %0, ptr %3, align 4
  %4 = load float, ptr %3, align 4
  call void @_ZN32pxrInternal_v0_24__pxrReserved__13TfStreamFloatC2Ef(ptr noundef nonnull align 4 dereferenceable(4) %2, float noundef %4)
  %5 = getelementptr inbounds nuw %"struct.pxrInternal_v0_24__pxrReserved__::TfStreamFloat", ptr %2, i32 0, i32 0
  %6 = load float, ptr %5, align 4
  ret float %6
}

; Function Attrs: mustprogress nounwind uwtable
define linkonce_odr noundef nonnull align 4 dereferenceable(4) ptr @_ZNK32pxrInternal_v0_24__pxrReserved__7GfVec4fixEm(ptr noundef nonnull align 4 dereferenceable(16) %0, i64 noundef %1) #2 comdat align 2 {
  %3 = alloca ptr, align 8
  %4 = alloca i64, align 8
  store ptr %0, ptr %3, align 8
  store i64 %1, ptr %4, align 8
  %5 = load ptr, ptr %3, align 8
  %6 = getelementptr inbounds nuw %"class.pxrInternal_v0_24__pxrReserved__::GfVec4f", ptr %5, i32 0, i32 0
  %7 = load i64, ptr %4, align 8
  %8 = getelementptr inbounds [4 x float], ptr %6, i64 0, i64 %7
  ret ptr %8
}

; Function Attrs: mustprogress uwtable
define noundef nonnull align 8 dereferenceable(8) ptr @_ZN32pxrInternal_v0_24__pxrReserved__lsERSoRKNS_7GfVec4fE(ptr noundef nonnull align 8 dereferenceable(8) %0, ptr noundef nonnull align 4 dereferenceable(16) %1) #0 {
  %3 = alloca ptr, align 8
  %4 = alloca ptr, align 8
  %5 = alloca %"struct.pxrInternal_v0_24__pxrReserved__::TfStreamFloat", align 4
  %6 = alloca %"struct.pxrInternal_v0_24__pxrReserved__::TfStreamFloat", align 4
  %7 = alloca %"struct.pxrInternal_v0_24__pxrReserved__::TfStreamFloat", align 4
  %8 = alloca %"struct.pxrInternal_v0_24__pxrReserved__::TfStreamFloat", align 4
  store ptr %0, ptr %3, align 8
  store ptr %1, ptr %4, align 8
  %9 = load ptr, ptr %3, align 8
  %10 = call noundef nonnull align 8 dereferenceable(8) ptr @_ZStlsISt11char_traitsIcEERSt13basic_ostreamIcT_ES5_c(ptr noundef nonnull align 8 dereferenceable(8) %9, i8 noundef signext 40)
  %11 = load ptr, ptr %4, align 8
  %12 = call noundef nonnull align 4 dereferenceable(4) ptr @_ZNK32pxrInternal_v0_24__pxrReserved__7GfVec4fixEm(ptr noundef nonnull align 4 dereferenceable(16) %11, i64 noundef 0)
  %13 = load float, ptr %12, align 4
  %14 = call float @_ZN32pxrInternal_v0_24__pxrReserved__17Gf_OstreamHelperPEf(float noundef %13)
  %15 = getelementptr inbounds nuw %"struct.pxrInternal_v0_24__pxrReserved__::TfStreamFloat", ptr %5, i32 0, i32 0
  store float %14, ptr %15, align 4
  %16 = getelementptr inbounds nuw %"struct.pxrInternal_v0_24__pxrReserved__::TfStreamFloat", ptr %5, i32 0, i32 0
  %17 = load float, ptr %16, align 4
  %18 = call noundef nonnull align 8 dereferenceable(8) ptr @_ZN32pxrInternal_v0_24__pxrReserved__lsERSoNS_13TfStreamFloatE(ptr noundef nonnull align 8 dereferenceable(8) %10, float %17)
  %19 = call noundef nonnull align 8 dereferenceable(8) ptr @_ZStlsISt11char_traitsIcEERSt13basic_ostreamIcT_ES5_PKc(ptr noundef nonnull align 8 dereferenceable(8) %18, ptr noundef @.str.2)
  %20 = load ptr, ptr %4, align 8
  %21 = call noundef nonnull align 4 dereferenceable(4) ptr @_ZNK32pxrInternal_v0_24__pxrReserved__7GfVec4fixEm(ptr noundef nonnull align 4 dereferenceable(16) %20, i64 noundef 1)
  %22 = load float, ptr %21, align 4
  %23 = call float @_ZN32pxrInternal_v0_24__pxrReserved__17Gf_OstreamHelperPEf(float noundef %22)
  %24 = getelementptr inbounds nuw %"struct.pxrInternal_v0_24__pxrReserved__::TfStreamFloat", ptr %6, i32 0, i32 0
  store float %23, ptr %24, align 4
  %25 = getelementptr inbounds nuw %"struct.pxrInternal_v0_24__pxrReserved__::TfStreamFloat", ptr %6, i32 0, i32 0
  %26 = load float, ptr %25, align 4
  %27 = call noundef nonnull align 8 dereferenceable(8) ptr @_ZN32pxrInternal_v0_24__pxrReserved__lsERSoNS_13TfStreamFloatE(ptr noundef nonnull align 8 dereferenceable(8) %19, float %26)
  %28 = call noundef nonnull align 8 dereferenceable(8) ptr @_ZStlsISt11char_traitsIcEERSt13basic_ostreamIcT_ES5_PKc(ptr noundef nonnull align 8 dereferenceable(8) %27, ptr noundef @.str.2)
  %29 = load ptr, ptr %4, align 8
  %30 = call noundef nonnull align 4 dereferenceable(4) ptr @_ZNK32pxrInternal_v0_24__pxrReserved__7GfVec4fixEm(ptr noundef nonnull align 4 dereferenceable(16) %29, i64 noundef 2)
  %31 = load float, ptr %30, align 4
  %32 = call float @_ZN32pxrInternal_v0_24__pxrReserved__17Gf_OstreamHelperPEf(float noundef %31)
  %33 = getelementptr inbounds nuw %"struct.pxrInternal_v0_24__pxrReserved__::TfStreamFloat", ptr %7, i32 0, i32 0
  store float %32, ptr %33, align 4
  %34 = getelementptr inbounds nuw %"struct.pxrInternal_v0_24__pxrReserved__::TfStreamFloat", ptr %7, i32 0, i32 0
  %35 = load float, ptr %34, align 4
  %36 = call noundef nonnull align 8 dereferenceable(8) ptr @_ZN32pxrInternal_v0_24__pxrReserved__lsERSoNS_13TfStreamFloatE(ptr noundef nonnull align 8 dereferenceable(8) %28, float %35)
  %37 = call noundef nonnull align 8 dereferenceable(8) ptr @_ZStlsISt11char_traitsIcEERSt13basic_ostreamIcT_ES5_PKc(ptr noundef nonnull align 8 dereferenceable(8) %36, ptr noundef @.str.2)
  %38 = load ptr, ptr %4, align 8
  %39 = call noundef nonnull align 4 dereferenceable(4) ptr @_ZNK32pxrInternal_v0_24__pxrReserved__7GfVec4fixEm(ptr noundef nonnull align 4 dereferenceable(16) %38, i64 noundef 3)
  %40 = load float, ptr %39, align 4
  %41 = call float @_ZN32pxrInternal_v0_24__pxrReserved__17Gf_OstreamHelperPEf(float noundef %40)
  %42 = getelementptr inbounds nuw %"struct.pxrInternal_v0_24__pxrReserved__::TfStreamFloat", ptr %8, i32 0, i32 0
  store float %41, ptr %42, align 4
  %43 = getelementptr inbounds nuw %"struct.pxrInternal_v0_24__pxrReserved__::TfStreamFloat", ptr %8, i32 0, i32 0
  %44 = load float, ptr %43, align 4
  %45 = call noundef nonnull align 8 dereferenceable(8) ptr @_ZN32pxrInternal_v0_24__pxrReserved__lsERSoNS_13TfStreamFloatE(ptr noundef nonnull align 8 dereferenceable(8) %37, float %44)
  %46 = call noundef nonnull align 8 dereferenceable(8) ptr @_ZStlsISt11char_traitsIcEERSt13basic_ostreamIcT_ES5_c(ptr noundef nonnull align 8 dereferenceable(8) %45, i8 noundef signext 41)
  ret ptr %46
}